target datalayout = "e-m:e-p270:32:32-p271:32:32-p272:64:64-i64:64-i128:128-f80:128-n8:16:32:64-S128"
target triple = "x86_64-pc-linux-gnu"

%struct.conmgr_callback_args_t = type { ptr, i32 }

@.str.87 = private unnamed_addr constant [19 x i8] c"_get_tls_cert_work\00", align 1
@.str.94 = private unnamed_addr constant [34 x i8] c"%s: Unable to get TLS certificate\00", align 1

; Function Attrs: nounwind uwtable
define internal void @_get_tls_cert_work(ptr %0, i32 %1, ptr noundef %2) #0 {
  %4 = alloca %struct.conmgr_callback_args_t, align 8
  %5 = alloca ptr, align 8
  %6 = getelementptr inbounds nuw { ptr, i32 }, ptr %4, i32 0, i32 0
  store ptr %0, ptr %6, align 8
  %7 = getelementptr inbounds nuw { ptr, i32 }, ptr %4, i32 0, i32 1
  store i32 %1, ptr %7, align 8
  store ptr %2, ptr %5, align 8
  %8 = call i32 @_get_tls_certificate()
  %9 = icmp ne i32 %8, 0
  br i1 %9, label %10, label %12

10:                                               ; preds = %3
  %11 = call i32 (ptr, ...) @error(ptr noundef @.str.94, ptr noundef @.str.87)
  br label %12

12:                                               ; preds = %10, %3
  ret void
}