; Function Attrs: nounwind uwtable
define internal void @_get_tls_cert_work(ptr readnone captures(none) %0, i32 %1, ptr readnone captures(none) %2) #0 {
  %4 = tail call fastcc i32 @_get_tls_certificate()
  %.not = icmp eq i32 %4, 0
  br i1 %.not, label %7, label %5

5:                                                ; preds = %3
  %6 = tail call i32 (ptr, ...) @error(ptr noundef nonnull @.str.94, ptr noundef nonnull @.str.87) #18
  br label %7

7:                                                ; preds = %5, %3
  ret void
}